target datalayout = "e-m:e-p270:32:32-p271:32:32-p272:64:64-i64:64-i128:128-f80:128-n8:16:32:64-S128"
target triple = "x86_64-pc-linux-gnu"

%struct._lv_fragment_manager_t = type { ptr, %struct.lv_ll_t, %struct.lv_ll_t }
%struct.lv_ll_t = type { i32, ptr, ptr }
%struct._lv_fragment_managed_states_t = type { ptr, ptr, ptr, ptr, i8, i8, i8 }
%struct._lv_fragment_t = type { ptr, ptr, ptr, ptr }
%struct._lv_fragment_class_t = type { ptr, ptr, ptr, ptr, ptr, ptr, ptr, ptr, ptr, i64 }

; Function Attrs: nounwind uwtable
define zeroext i1 @lv_fragment_manager_send_event(ptr noundef %0, i32 noundef %1, ptr noundef %2) #0 {
  %4 = alloca i1, align 1
  %5 = alloca ptr, align 8
  %6 = alloca i32, align 4
  %7 = alloca ptr, align 8
  %8 = alloca ptr, align 8
  %9 = alloca ptr, align 8
  %10 = alloca i32, align 4
  store ptr %0, ptr %5, align 8, !tbaa !3
  store i32 %1, ptr %6, align 4, !tbaa !38
  store ptr %2, ptr %7, align 8, !tbaa !3
  br label %11

11:                                               ; preds = %3
  %12 = load ptr, ptr %5, align 8, !tbaa !3
  %13 = icmp ne ptr %12, null
  br i1 %13, label %18, label %14

14:                                               ; preds = %11
  br label %15

15:                                               ; preds = %14
  br label %16

16:                                               ; preds = %15
  br label %17

17:                                               ; preds = %16, %17
  br label %17

18:                                               ; preds = %11
  br label %19

19:                                               ; preds = %18
  call void @llvm.lifetime.start.p0(i64 8, ptr %8) #4
  store ptr null, ptr %8, align 8, !tbaa !3
  %20 = load ptr, ptr %5, align 8, !tbaa !3
  %21 = getelementptr inbounds nuw %struct._lv_fragment_manager_t, ptr %20, i32 0, i32 1
  %22 = call ptr @lv_ll_get_tail(ptr noundef %21)
  store ptr %22, ptr %8, align 8, !tbaa !3
  br label %23

23:                                               ; preds = %74, %19
  %24 = load ptr, ptr %8, align 8, !tbaa !3
  %25 = icmp ne ptr %24, null
  br i1 %25, label %26, label %79

26:                                               ; preds = %23
  %27 = load ptr, ptr %8, align 8, !tbaa !3
  %28 = getelementptr inbounds nuw %struct._lv_fragment_managed_states_t, ptr %27, i32 0, i32 4
  %29 = load i8, ptr %28, align 8, !tbaa !30, !range !23, !noundef !24
  %30 = trunc i8 %29 to i1
  br i1 %30, label %31, label %36

31:                                               ; preds = %26
  %32 = load ptr, ptr %8, align 8, !tbaa !3
  %33 = getelementptr inbounds nuw %struct._lv_fragment_managed_states_t, ptr %32, i32 0, i32 5
  %34 = load i8, ptr %33, align 1, !tbaa !39, !range !23, !noundef !24
  %35 = trunc i8 %34 to i1
  br i1 %35, label %36, label %37

36:                                               ; preds = %31, %26
  br label %74

37:                                               ; preds = %31
  call void @llvm.lifetime.start.p0(i64 8, ptr %9) #4
  %38 = load ptr, ptr %8, align 8, !tbaa !3
  %39 = getelementptr inbounds nuw %struct._lv_fragment_managed_states_t, ptr %38, i32 0, i32 3
  %40 = load ptr, ptr %39, align 8, !tbaa !13
  store ptr %40, ptr %9, align 8, !tbaa !3
  %41 = load ptr, ptr %9, align 8, !tbaa !3
  %42 = icmp ne ptr %41, null
  br i1 %42, label %44, label %43

43:                                               ; preds = %37
  store i32 10, ptr %10, align 4
  br label %71

44:                                               ; preds = %37
  %45 = load ptr, ptr %9, align 8, !tbaa !3
  %46 = getelementptr inbounds nuw %struct._lv_fragment_t, ptr %45, i32 0, i32 2
  %47 = load ptr, ptr %46, align 8, !tbaa !40
  %48 = load i32, ptr %6, align 4, !tbaa !38
  %49 = load ptr, ptr %7, align 8, !tbaa !3
  %50 = call zeroext i1 @lv_fragment_manager_send_event(ptr noundef %47, i32 noundef %48, ptr noundef %49)
  br i1 %50, label %51, label %52

51:                                               ; preds = %44
  store i1 true, ptr %4, align 1
  store i32 1, ptr %10, align 4
  br label %71

52:                                               ; preds = %44
  %53 = load ptr, ptr %8, align 8, !tbaa !3
  %54 = getelementptr inbounds nuw %struct._lv_fragment_managed_states_t, ptr %53, i32 0, i32 0
  %55 = load ptr, ptr %54, align 8, !tbaa !31
  %56 = getelementptr inbounds nuw %struct._lv_fragment_class_t, ptr %55, i32 0, i32 8
  %57 = load ptr, ptr %56, align 8, !tbaa !41
  %58 = icmp ne ptr %57, null
  br i1 %58, label %59, label %70

59:                                               ; preds = %52
  %60 = load ptr, ptr %8, align 8, !tbaa !3
  %61 = getelementptr inbounds nuw %struct._lv_fragment_managed_states_t, ptr %60, i32 0, i32 0
  %62 = load ptr, ptr %61, align 8, !tbaa !31
  %63 = getelementptr inbounds nuw %struct._lv_fragment_class_t, ptr %62, i32 0, i32 8
  %64 = load ptr, ptr %63, align 8, !tbaa !41
  %65 = load ptr, ptr %9, align 8, !tbaa !3
  %66 = load i32, ptr %6, align 4, !tbaa !38
  %67 = load ptr, ptr %7, align 8, !tbaa !3
  %68 = call zeroext i1 %64(ptr noundef %65, i32 noundef %66, ptr noundef %67)
  br i1 %68, label %69, label %70

69:                                               ; preds = %59
  store i1 true, ptr %4, align 1
  store i32 1, ptr %10, align 4
  br label %71

70:                                               ; preds = %59, %52
  store i32 0, ptr %10, align 4
  br label %71

71:                                               ; preds = %70, %69, %51, %43
  call void @llvm.lifetime.end.p0(i64 8, ptr %9) #4
  %72 = load i32, ptr %10, align 4
  switch i32 %72, label %80 [
    i32 0, label %73
    i32 10, label %74
  ]

73:                                               ; preds = %71
  br label %74

74:                                               ; preds = %73, %71, %36
  %75 = load ptr, ptr %5, align 8, !tbaa !3
  %76 = getelementptr inbounds nuw %struct._lv_fragment_manager_t, ptr %75, i32 0, i32 1
  %77 = load ptr, ptr %8, align 8, !tbaa !3
  %78 = call ptr @lv_ll_get_prev(ptr noundef %76, ptr noundef %77)
  store ptr %78, ptr %8, align 8, !tbaa !3
  br label %23, !llvm.loop !42

79:                                               ; preds = %23
  store i1 false, ptr %4, align 1
  store i32 1, ptr %10, align 4
  br label %80

80:                                               ; preds = %79, %71
  call void @llvm.lifetime.end.p0(i64 8, ptr %8) #4
  %81 = load i1, ptr %4, align 1
  ret i1 %81
}