; Function Attrs: nounwind uwtable
define noundef zeroext i1 @lv_fragment_manager_send_event(ptr noundef %0, i32 noundef %1, ptr noundef %2) local_unnamed_addr #0 {
  %.not = icmp eq ptr %0, null
  br i1 %.not, label %.preheader, label %4

.preheader:                                       ; preds = %3, %.preheader
  br label %.preheader

4:                                                ; preds = %3
  %5 = getelementptr inbounds nuw i8, ptr %0, i64 8
  %6 = tail call ptr @lv_ll_get_tail(ptr noundef nonnull %5) #3
  %.not2327.not = icmp eq ptr %6, null
  br i1 %.not2327.not, label %.thread, label %.lr.ph

.lr.ph:                                           ; preds = %4, %27
  %.01928 = phi ptr [ %28, %27 ], [ %6, %4 ]
  %7 = getelementptr inbounds nuw i8, ptr %.01928, i64 32
  %8 = load i8, ptr %7, align 8, !tbaa !33, !range !22, !noundef !23
  %9 = trunc nuw i8 %8 to i1
  br i1 %9, label %10, label %27

10:                                               ; preds = %.lr.ph
  %11 = getelementptr inbounds nuw i8, ptr %.01928, i64 33
  %12 = load i8, ptr %11, align 1, !tbaa !36, !range !22, !noundef !23
  %13 = trunc nuw i8 %12 to i1
  br i1 %13, label %27, label %14

14:                                               ; preds = %10
  %15 = getelementptr inbounds nuw i8, ptr %.01928, i64 24
  %16 = load ptr, ptr %15, align 8, !tbaa !10
  %.not24 = icmp eq ptr %16, null
  br i1 %.not24, label %27, label %17

17:                                               ; preds = %14
  %18 = getelementptr inbounds nuw i8, ptr %16, i64 16
  %19 = load ptr, ptr %18, align 8, !tbaa !37
  %20 = tail call zeroext i1 @lv_fragment_manager_send_event(ptr noundef %19, i32 noundef %1, ptr noundef %2)
  br i1 %20, label %.thread, label %21

21:                                               ; preds = %17
  %22 = load ptr, ptr %.01928, align 8, !tbaa !30
  %23 = getelementptr inbounds nuw i8, ptr %22, i64 64
  %24 = load ptr, ptr %23, align 8, !tbaa !38
  %.not25 = icmp eq ptr %24, null
  br i1 %.not25, label %27, label %25

25:                                               ; preds = %21
  %26 = tail call zeroext i1 %24(ptr noundef nonnull %16, i32 noundef %1, ptr noundef %2) #3
  br i1 %26, label %.thread, label %27

27:                                               ; preds = %21, %25, %14, %.lr.ph, %10
  %28 = tail call ptr @lv_ll_get_prev(ptr noundef nonnull %5, ptr noundef nonnull %.01928) #3
  %.not23.not = icmp eq ptr %28, null
  br i1 %.not23.not, label %.thread, label %.lr.ph, !llvm.loop !39

.thread:                                          ; preds = %27, %17, %25, %4
  %.not23.lcssa = phi i1 [ false, %4 ], [ true, %25 ], [ true, %17 ], [ false, %27 ]
  ret i1 %.not23.lcssa
}